target datalayout = "e-m:e-p270:32:32-p271:32:32-p272:64:64-i64:64-i128:128-f80:128-n8:16:32:64-S128"
target triple = "x86_64-pc-linux-gnu"

%struct.GtkObject = type { %struct.GObject, i32 }
%struct.GObject = type { %struct.GTypeInstance, i32, ptr }
%struct.GTypeInstance = type { ptr }
%struct._GtkAdjustment = type { %struct.GtkObject, double, double, double, double, double, double }

@fp_gtk_range_get_adjustment = internal global ptr null, align 8
@gtk2_widget = internal global ptr null, align 8

; Function Attrs: nounwind uwtable
define internal void @gtk2_set_range_value(i32 noundef %0, double noundef %1, double noundef %2, double noundef %3, double noundef %4) #0 {
  %6 = alloca i32, align 4
  %7 = alloca double, align 8
  %8 = alloca double, align 8
  %9 = alloca double, align 8
  %10 = alloca double, align 8
  %11 = alloca ptr, align 8
  store i32 %0, ptr %6, align 4
  store double %1, ptr %7, align 8
  store double %2, ptr %8, align 8
  store double %3, ptr %9, align 8
  store double %4, ptr %10, align 8
  %12 = load i32, ptr %6, align 4
  %13 = call ptr @gtk2_get_widget(i32 noundef %12)
  store ptr %13, ptr @gtk2_widget, align 8
  %14 = load ptr, ptr @fp_gtk_range_get_adjustment, align 8
  %15 = load ptr, ptr @gtk2_widget, align 8
  %16 = call ptr %14(ptr noundef %15)
  store ptr %16, ptr %11, align 8
  %17 = load double, ptr %7, align 8
  %18 = load ptr, ptr %11, align 8
  %19 = getelementptr inbounds %struct._GtkAdjustment, ptr %18, i32 0, i32 3
  store double %17, ptr %19, align 8
  %20 = load double, ptr %8, align 8
  %21 = load ptr, ptr %11, align 8
  %22 = getelementptr inbounds %struct._GtkAdjustment, ptr %21, i32 0, i32 1
  store double %20, ptr %22, align 8
  %23 = load double, ptr %9, align 8
  %24 = load ptr, ptr %11, align 8
  %25 = getelementptr inbounds %struct._GtkAdjustment, ptr %24, i32 0, i32 2
  store double %23, ptr %25, align 8
  %26 = load double, ptr %10, align 8
  %27 = load ptr, ptr %11, align 8
  %28 = getelementptr inbounds %struct._GtkAdjustment, ptr %27, i32 0, i32 6
  store double %26, ptr %28, align 8
  ret void
}