; Function Attrs: nounwind uwtable
define internal void @gtk2_set_range_value(i32 noundef %0, double noundef %1, double noundef %2, double noundef %3, double noundef %4) #0 {
  %6 = tail call fastcc ptr @gtk2_get_widget(i32 noundef %0)
  store ptr %6, ptr @gtk2_widget, align 8
  %7 = load ptr, ptr @fp_gtk_range_get_adjustment, align 8
  %8 = tail call ptr %7(ptr noundef %6) #18
  %9 = getelementptr inbounds i8, ptr %8, i64 48
  store double %1, ptr %9, align 8
  %10 = getelementptr inbounds i8, ptr %8, i64 32
  store double %2, ptr %10, align 8
  %11 = getelementptr inbounds i8, ptr %8, i64 40
  store double %3, ptr %11, align 8
  %12 = getelementptr inbounds i8, ptr %8, i64 72
  store double %4, ptr %12, align 8
  ret void
}